target datalayout = "e-m:e-p270:32:32-p271:32:32-p272:64:64-i64:64-i128:128-f80:128-n8:16:32:64-S128"
target triple = "x86_64-pc-linux-gnu"

%class.ZStatMMUPause = type { double, double }

@_ZN8ZStatMMU5_nextE = hidden global i64 0, align 8
@_ZN8ZStatMMU8_npausesE = hidden global i64 0, align 8
@_ZN8ZStatMMU7_pausesE = hidden global [200 x %class.ZStatMMUPause] zeroinitializer, align 16
@_ZN8ZStatMMU8_mmu_2msE = hidden global double 1.000000e+02, align 8
@_ZN8ZStatMMU8_mmu_5msE = hidden global double 1.000000e+02, align 8
@_ZN8ZStatMMU9_mmu_10msE = hidden global double 1.000000e+02, align 8
@_ZN8ZStatMMU9_mmu_20msE = hidden global double 1.000000e+02, align 8
@_ZN8ZStatMMU9_mmu_50msE = hidden global double 1.000000e+02, align 8
@_ZN8ZStatMMU10_mmu_100msE = hidden global double 1.000000e+02, align 8
@_ZN13ZStatMMUPauseC1ERK11TimeInstantI30CompositeCounterRepresentation29CompositeElapsedCounterSourceES5_ = hidden unnamed_addr alias void (ptr, ptr, ptr), ptr @_ZN13ZStatMMUPauseC2ERK11TimeInstantI30CompositeCounterRepresentation29CompositeElapsedCounterSourceES5_

; Function Attrs: mustprogress nounwind uwtable
define linkonce_odr hidden noundef double @_Z4MAX2IdET_S0_S0_(double noundef %0, double noundef %1) #1 comdat {
  %3 = alloca double, align 8
  %4 = alloca double, align 8
  store double %0, ptr %3, align 8
  store double %1, ptr %4, align 8
  %5 = load double, ptr %3, align 8
  %6 = load double, ptr %4, align 8
  %7 = fcmp ogt double %5, %6
  br i1 %7, label %8, label %10

8:                                                ; preds = %2
  %9 = load double, ptr %3, align 8
  br label %12

10:                                               ; preds = %2
  %11 = load double, ptr %4, align 8
  br label %12

12:                                               ; preds = %10, %8
  %13 = phi double [ %9, %8 ], [ %11, %10 ]
  ret double %13
}

; Function Attrs: mustprogress nounwind uwtable
define linkonce_odr hidden noundef double @_Z10percent_ofIdEdT_S0_(double noundef %0, double noundef %1) #1 comdat {
  %3 = alloca double, align 8
  %4 = alloca double, align 8
  store double %0, ptr %3, align 8
  store double %1, ptr %4, align 8
  %5 = load double, ptr %4, align 8
  %6 = fcmp une double %5, 0.000000e+00
  br i1 %6, label %7, label %12

7:                                                ; preds = %2
  %8 = load double, ptr %3, align 8
  %9 = load double, ptr %4, align 8
  %10 = fdiv double %8, %9
  %11 = fmul double %10, 1.000000e+02
  br label %13

12:                                               ; preds = %2
  br label %13

13:                                               ; preds = %12, %7
  %14 = phi double [ %11, %7 ], [ 0.000000e+00, %12 ]
  ret double %14
}

; Function Attrs: mustprogress nounwind uwtable
define hidden noundef double @_ZNK13ZStatMMUPause7overlapEdd(ptr noundef nonnull align 8 dereferenceable(16) %0, double noundef %1, double noundef %2) #1 align 2 {
  %4 = alloca double, align 8
  %5 = alloca ptr, align 8
  %6 = alloca double, align 8
  %7 = alloca double, align 8
  %8 = alloca double, align 8
  %9 = alloca double, align 8
  store ptr %0, ptr %5, align 8
  store double %1, ptr %6, align 8
  store double %2, ptr %7, align 8
  %10 = load ptr, ptr %5, align 8
  %11 = load double, ptr %6, align 8
  %12 = getelementptr inbounds %class.ZStatMMUPause, ptr %10, i32 0, i32 0
  %13 = load double, ptr %12, align 8
  %14 = call noundef double @_Z4MAX2IdET_S0_S0_(double noundef %11, double noundef %13)
  store double %14, ptr %8, align 8
  %15 = load double, ptr %7, align 8
  %16 = getelementptr inbounds %class.ZStatMMUPause, ptr %10, i32 0, i32 1
  %17 = load double, ptr %16, align 8
  %18 = call noundef double @_Z4MIN2IdET_S0_S0_(double noundef %15, double noundef %17)
  store double %18, ptr %9, align 8
  %19 = load double, ptr %9, align 8
  %20 = load double, ptr %8, align 8
  %21 = fcmp ogt double %19, %20
  br i1 %21, label %22, label %26

22:                                               ; preds = %3
  %23 = load double, ptr %9, align 8
  %24 = load double, ptr %8, align 8
  %25 = fsub double %23, %24
  store double %25, ptr %4, align 8
  br label %27

26:                                               ; preds = %3
  store double 0.000000e+00, ptr %4, align 8
  br label %27

27:                                               ; preds = %26, %22
  %28 = load double, ptr %4, align 8
  ret double %28
}

; Function Attrs: mustprogress nounwind uwtable
define hidden noundef double @_ZNK13ZStatMMUPause3endEv(ptr noundef nonnull align 8 dereferenceable(16) %0) #1 align 2 {
  %2 = alloca ptr, align 8
  store ptr %0, ptr %2, align 8
  %3 = load ptr, ptr %2, align 8
  %4 = getelementptr inbounds %class.ZStatMMUPause, ptr %3, i32 0, i32 1
  %5 = load double, ptr %4, align 8
  ret double %5
}

; Function Attrs: mustprogress nounwind uwtable
define hidden noundef nonnull align 8 dereferenceable(16) ptr @_ZN8ZStatMMU5pauseEm(i64 noundef %0) #1 align 2 {
  %2 = alloca i64, align 8
  store i64 %0, ptr %2, align 8
  %3 = load i64, ptr @_ZN8ZStatMMU5_nextE, align 8
  %4 = load i64, ptr %2, align 8
  %5 = sub i64 %3, %4
  %6 = sub i64 %5, 1
  %7 = urem i64 %6, 200
  %8 = getelementptr inbounds [200 x %class.ZStatMMUPause], ptr @_ZN8ZStatMMU7_pausesE, i64 0, i64 %7
  ret ptr %8
}

; Function Attrs: mustprogress nounwind uwtable
define linkonce_odr hidden noundef double @_Z4MIN2IdET_S0_S0_(double noundef %0, double noundef %1) #1 comdat {
  %3 = alloca double, align 8
  %4 = alloca double, align 8
  store double %0, ptr %3, align 8
  store double %1, ptr %4, align 8
  %5 = load double, ptr %3, align 8
  %6 = load double, ptr %4, align 8
  %7 = fcmp olt double %5, %6
  br i1 %7, label %8, label %10

8:                                                ; preds = %2
  %9 = load double, ptr %3, align 8
  br label %12

10:                                               ; preds = %2
  %11 = load double, ptr %4, align 8
  br label %12

12:                                               ; preds = %10, %8
  %13 = phi double [ %9, %8 ], [ %11, %10 ]
  ret double %13
}

; Function Attrs: mustprogress nounwind uwtable
define hidden noundef double @_ZN8ZStatMMU13calculate_mmuEd(double noundef %0) #1 align 2 {
  %2 = alloca double, align 8
  %3 = alloca double, align 8
  %4 = alloca double, align 8
  %5 = alloca double, align 8
  %6 = alloca i64, align 8
  %7 = alloca double, align 8
  %8 = alloca double, align 8
  store double %0, ptr %2, align 8
  %9 = call noundef nonnull align 8 dereferenceable(16) ptr @_ZN8ZStatMMU5pauseEm(i64 noundef 0)
  %10 = call noundef double @_ZNK13ZStatMMUPause3endEv(ptr noundef nonnull align 8 dereferenceable(16) %9)
  store double %10, ptr %3, align 8
  %11 = load double, ptr %3, align 8
  %12 = load double, ptr %2, align 8
  %13 = fsub double %11, %12
  store double %13, ptr %4, align 8
  store double 0.000000e+00, ptr %5, align 8
  store i64 0, ptr %6, align 8
  br label %14

14:                                               ; preds = %31, %1
  %15 = load i64, ptr %6, align 8
  %16 = load i64, ptr @_ZN8ZStatMMU8_npausesE, align 8
  %17 = icmp ult i64 %15, %16
  br i1 %17, label %18, label %34

18:                                               ; preds = %14
  %19 = load i64, ptr %6, align 8
  %20 = call noundef nonnull align 8 dereferenceable(16) ptr @_ZN8ZStatMMU5pauseEm(i64 noundef %19)
  %21 = load double, ptr %4, align 8
  %22 = load double, ptr %3, align 8
  %23 = call noundef double @_ZNK13ZStatMMUPause7overlapEdd(ptr noundef nonnull align 8 dereferenceable(16) %20, double noundef %21, double noundef %22)
  store double %23, ptr %7, align 8
  %24 = load double, ptr %7, align 8
  %25 = fcmp oeq double %24, 0.000000e+00
  br i1 %25, label %26, label %27

26:                                               ; preds = %18
  br label %34

27:                                               ; preds = %18
  %28 = load double, ptr %7, align 8
  %29 = load double, ptr %5, align 8
  %30 = fadd double %29, %28
  store double %30, ptr %5, align 8
  br label %31

31:                                               ; preds = %27
  %32 = load i64, ptr %6, align 8
  %33 = add i64 %32, 1
  store i64 %33, ptr %6, align 8
  br label %14, !llvm.loop !11

34:                                               ; preds = %26, %14
  %35 = load double, ptr %2, align 8
  %36 = load double, ptr %5, align 8
  %37 = fsub double %35, %36
  store double %37, ptr %8, align 8
  %38 = load double, ptr %8, align 8
  %39 = load double, ptr %2, align 8
  %40 = call noundef double @_Z10percent_ofIdEdT_S0_(double noundef %38, double noundef %39)
  ret double %40
}

; Function Attrs: mustprogress nounwind uwtable
define linkonce_odr hidden noundef i64 @_Z4MIN2ImET_S0_S0_(i64 noundef %0, i64 noundef %1) #1 comdat {
  %3 = alloca i64, align 8
  %4 = alloca i64, align 8
  store i64 %0, ptr %3, align 8
  store i64 %1, ptr %4, align 8
  %5 = load i64, ptr %3, align 8
  %6 = load i64, ptr %4, align 8
  %7 = icmp ult i64 %5, %6
  br i1 %7, label %8, label %10

8:                                                ; preds = %2
  %9 = load i64, ptr %3, align 8
  br label %12

10:                                               ; preds = %2
  %11 = load i64, ptr %4, align 8
  br label %12

12:                                               ; preds = %10, %8
  %13 = phi i64 [ %9, %8 ], [ %11, %10 ]
  ret i64 %13
}

; Function Attrs: mustprogress nounwind uwtable
define hidden void @_ZN8ZStatMMU14register_pauseERK11TimeInstantI30CompositeCounterRepresentation29CompositeElapsedCounterSourceES5_(ptr noundef nonnull align 8 dereferenceable(16) %0, ptr noundef nonnull align 8 dereferenceable(16) %1) #1 align 2 {
  %3 = alloca ptr, align 8
  %4 = alloca ptr, align 8
  %5 = alloca i64, align 8
  %6 = alloca %class.ZStatMMUPause, align 8
  store ptr %0, ptr %3, align 8
  store ptr %1, ptr %4, align 8
  %7 = load i64, ptr @_ZN8ZStatMMU5_nextE, align 8
  %8 = add i64 %7, 1
  store i64 %8, ptr @_ZN8ZStatMMU5_nextE, align 8
  %9 = urem i64 %7, 200
  store i64 %9, ptr %5, align 8
  %10 = load ptr, ptr %3, align 8
  %11 = load ptr, ptr %4, align 8
  call void @_ZN13ZStatMMUPauseC1ERK11TimeInstantI30CompositeCounterRepresentation29CompositeElapsedCounterSourceES5_(ptr noundef nonnull align 8 dereferenceable(16) %6, ptr noundef nonnull align 8 dereferenceable(16) %10, ptr noundef nonnull align 8 dereferenceable(16) %11)
  %12 = load i64, ptr %5, align 8
  %13 = getelementptr inbounds [200 x %class.ZStatMMUPause], ptr @_ZN8ZStatMMU7_pausesE, i64 0, i64 %12
  call void @llvm.memcpy.p0.p0.i64(ptr align 16 %13, ptr align 8 %6, i64 16, i1 false)
  %14 = load i64, ptr @_ZN8ZStatMMU8_npausesE, align 8
  %15 = add i64 %14, 1
  %16 = call noundef i64 @_Z4MIN2ImET_S0_S0_(i64 noundef %15, i64 noundef 200)
  store i64 %16, ptr @_ZN8ZStatMMU8_npausesE, align 8
  %17 = load double, ptr @_ZN8ZStatMMU8_mmu_2msE, align 8
  %18 = call noundef double @_ZN8ZStatMMU13calculate_mmuEd(double noundef 2.000000e+00)
  %19 = call noundef double @_Z4MIN2IdET_S0_S0_(double noundef %17, double noundef %18)
  store double %19, ptr @_ZN8ZStatMMU8_mmu_2msE, align 8
  %20 = load double, ptr @_ZN8ZStatMMU8_mmu_5msE, align 8
  %21 = call noundef double @_ZN8ZStatMMU13calculate_mmuEd(double noundef 5.000000e+00)
  %22 = call noundef double @_Z4MIN2IdET_S0_S0_(double noundef %20, double noundef %21)
  store double %22, ptr @_ZN8ZStatMMU8_mmu_5msE, align 8
  %23 = load double, ptr @_ZN8ZStatMMU9_mmu_10msE, align 8
  %24 = call noundef double @_ZN8ZStatMMU13calculate_mmuEd(double noundef 1.000000e+01)
  %25 = call noundef double @_Z4MIN2IdET_S0_S0_(double noundef %23, double noundef %24)
  store double %25, ptr @_ZN8ZStatMMU9_mmu_10msE, align 8
  %26 = load double, ptr @_ZN8ZStatMMU9_mmu_20msE, align 8
  %27 = call noundef double @_ZN8ZStatMMU13calculate_mmuEd(double noundef 2.000000e+01)
  %28 = call noundef double @_Z4MIN2IdET_S0_S0_(double noundef %26, double noundef %27)
  store double %28, ptr @_ZN8ZStatMMU9_mmu_20msE, align 8
  %29 = load double, ptr @_ZN8ZStatMMU9_mmu_50msE, align 8
  %30 = call noundef double @_ZN8ZStatMMU13calculate_mmuEd(double noundef 5.000000e+01)
  %31 = call noundef double @_Z4MIN2IdET_S0_S0_(double noundef %29, double noundef %30)
  store double %31, ptr @_ZN8ZStatMMU9_mmu_50msE, align 8
  %32 = load double, ptr @_ZN8ZStatMMU10_mmu_100msE, align 8
  %33 = call noundef double @_ZN8ZStatMMU13calculate_mmuEd(double noundef 1.000000e+02)
  %34 = call noundef double @_Z4MIN2IdET_S0_S0_(double noundef %32, double noundef %33)
  store double %34, ptr @_ZN8ZStatMMU10_mmu_100msE, align 8
  ret void
}