; Function Attrs: mustprogress nounwind uwtable
define hidden void @_ZN8ZStatMMU14register_pauseERK11TimeInstantI30CompositeCounterRepresentation29CompositeElapsedCounterSourceES5_(ptr nocapture noundef nonnull readonly align 8 dereferenceable(16) %0, ptr nocapture noundef nonnull readonly align 8 dereferenceable(16) %1) local_unnamed_addr #0 align 2 {
  %3 = load i64, ptr @_ZN8ZStatMMU5_nextE, align 8
  %4 = add i64 %3, 1
  store i64 %4, ptr @_ZN8ZStatMMU5_nextE, align 8
  %5 = urem i64 %3, 200
  %6 = load i64, ptr %0, align 8
  %7 = tail call noundef double @_ZN10TimeHelper17counter_to_millisEl(i64 noundef %6) #20
  %8 = load i64, ptr %1, align 8
  %9 = tail call noundef double @_ZN10TimeHelper17counter_to_millisEl(i64 noundef %8) #20
  %10 = getelementptr inbounds [200 x %class.ZStatMMUPause], ptr @_ZN8ZStatMMU7_pausesE, i64 0, i64 %5
  store double %7, ptr %10, align 16
  %.sroa.2.0..sroa_idx = getelementptr inbounds i8, ptr %10, i64 8
  store double %9, ptr %.sroa.2.0..sroa_idx, align 8
  %11 = load i64, ptr @_ZN8ZStatMMU8_npausesE, align 8
  %12 = add i64 %11, 1
  %13 = tail call noundef i64 @llvm.umin.i64(i64 %12, i64 200)
  store i64 %13, ptr @_ZN8ZStatMMU8_npausesE, align 8
  %14 = load double, ptr @_ZN8ZStatMMU8_mmu_2msE, align 8
  %15 = load i64, ptr @_ZN8ZStatMMU5_nextE, align 8
  %16 = add i64 %15, -1
  %17 = urem i64 %16, 200
  %18 = getelementptr inbounds [200 x %class.ZStatMMUPause], ptr @_ZN8ZStatMMU7_pausesE, i64 0, i64 %17, i32 1
  %19 = load double, ptr %18, align 8
  %20 = fadd double %19, -2.000000e+00
  %.not.i = icmp eq i64 %12, 0
  br i1 %.not.i, label %_ZN8ZStatMMU13calculate_mmuEd.exit, label %.lr.ph.i

.lr.ph.i:                                         ; preds = %2, %35
  %.016.i = phi double [ %36, %35 ], [ 0.000000e+00, %2 ]
  %.01315.i = phi i64 [ %37, %35 ], [ 0, %2 ]
  %21 = xor i64 %.01315.i, -1
  %22 = add i64 %15, %21
  %23 = urem i64 %22, 200
  %24 = getelementptr inbounds [200 x %class.ZStatMMUPause], ptr @_ZN8ZStatMMU7_pausesE, i64 0, i64 %23
  %25 = load double, ptr %24, align 16
  %26 = fcmp olt double %25, %20
  %27 = select i1 %26, double %20, double %25
  %28 = getelementptr inbounds i8, ptr %24, i64 8
  %29 = load double, ptr %28, align 8
  %30 = fcmp ogt double %29, %19
  %31 = select i1 %30, double %19, double %29
  %32 = fcmp ogt double %31, %27
  %33 = fsub double %31, %27
  %.0.i.i = select i1 %32, double %33, double 0.000000e+00
  %34 = fcmp oeq double %.0.i.i, 0.000000e+00
  br i1 %34, label %_ZN8ZStatMMU13calculate_mmuEd.exit, label %35

35:                                               ; preds = %.lr.ph.i
  %36 = fadd double %.016.i, %.0.i.i
  %37 = add nuw nsw i64 %.01315.i, 1
  %exitcond.not.i = icmp eq i64 %37, %13
  br i1 %exitcond.not.i, label %_ZN8ZStatMMU13calculate_mmuEd.exit, label %.lr.ph.i, !llvm.loop !14

_ZN8ZStatMMU13calculate_mmuEd.exit:               ; preds = %.lr.ph.i, %35, %2
  %.0.lcssa.i = phi double [ 0.000000e+00, %2 ], [ %36, %35 ], [ %.016.i, %.lr.ph.i ]
  %38 = fsub double 2.000000e+00, %.0.lcssa.i
  %39 = fmul double %38, 5.000000e-01
  %40 = fmul double %39, 1.000000e+02
  %41 = fcmp olt double %14, %40
  %42 = select i1 %41, double %14, double %40
  store double %42, ptr @_ZN8ZStatMMU8_mmu_2msE, align 8
  %43 = load double, ptr @_ZN8ZStatMMU8_mmu_5msE, align 8
  %44 = fadd double %19, -5.000000e+00
  br i1 %.not.i, label %_ZN8ZStatMMU13calculate_mmuEd.exit9, label %.lr.ph.i3

.lr.ph.i3:                                        ; preds = %_ZN8ZStatMMU13calculate_mmuEd.exit, %59
  %.016.i4 = phi double [ %60, %59 ], [ 0.000000e+00, %_ZN8ZStatMMU13calculate_mmuEd.exit ]
  %.01315.i5 = phi i64 [ %61, %59 ], [ 0, %_ZN8ZStatMMU13calculate_mmuEd.exit ]
  %45 = xor i64 %.01315.i5, -1
  %46 = add i64 %15, %45
  %47 = urem i64 %46, 200
  %48 = getelementptr inbounds [200 x %class.ZStatMMUPause], ptr @_ZN8ZStatMMU7_pausesE, i64 0, i64 %47
  %49 = load double, ptr %48, align 16
  %50 = fcmp olt double %49, %44
  %51 = select i1 %50, double %44, double %49
  %52 = getelementptr inbounds i8, ptr %48, i64 8
  %53 = load double, ptr %52, align 8
  %54 = fcmp ogt double %53, %19
  %55 = select i1 %54, double %19, double %53
  %56 = fcmp ogt double %55, %51
  %57 = fsub double %55, %51
  %.0.i.i6 = select i1 %56, double %57, double 0.000000e+00
  %58 = fcmp oeq double %.0.i.i6, 0.000000e+00
  br i1 %58, label %_ZN8ZStatMMU13calculate_mmuEd.exit9, label %59

59:                                               ; preds = %.lr.ph.i3
  %60 = fadd double %.016.i4, %.0.i.i6
  %61 = add nuw nsw i64 %.01315.i5, 1
  %exitcond.not.i7 = icmp eq i64 %61, %13
  br i1 %exitcond.not.i7, label %_ZN8ZStatMMU13calculate_mmuEd.exit9, label %.lr.ph.i3, !llvm.loop !14

_ZN8ZStatMMU13calculate_mmuEd.exit9:              ; preds = %.lr.ph.i3, %59, %_ZN8ZStatMMU13calculate_mmuEd.exit
  %.0.lcssa.i8 = phi double [ 0.000000e+00, %_ZN8ZStatMMU13calculate_mmuEd.exit ], [ %60, %59 ], [ %.016.i4, %.lr.ph.i3 ]
  %62 = fsub double 5.000000e+00, %.0.lcssa.i8
  %63 = fdiv double %62, 5.000000e+00
  %64 = fmul double %63, 1.000000e+02
  %65 = fcmp olt double %43, %64
  %66 = select i1 %65, double %43, double %64
  store double %66, ptr @_ZN8ZStatMMU8_mmu_5msE, align 8
  %67 = load double, ptr @_ZN8ZStatMMU9_mmu_10msE, align 8
  %68 = fadd double %19, -1.000000e+01
  br i1 %.not.i, label %_ZN8ZStatMMU13calculate_mmuEd.exit17, label %.lr.ph.i11

.lr.ph.i11:                                       ; preds = %_ZN8ZStatMMU13calculate_mmuEd.exit9, %83
  %.016.i12 = phi double [ %84, %83 ], [ 0.000000e+00, %_ZN8ZStatMMU13calculate_mmuEd.exit9 ]
  %.01315.i13 = phi i64 [ %85, %83 ], [ 0, %_ZN8ZStatMMU13calculate_mmuEd.exit9 ]
  %69 = xor i64 %.01315.i13, -1
  %70 = add i64 %15, %69
  %71 = urem i64 %70, 200
  %72 = getelementptr inbounds [200 x %class.ZStatMMUPause], ptr @_ZN8ZStatMMU7_pausesE, i64 0, i64 %71
  %73 = load double, ptr %72, align 16
  %74 = fcmp olt double %73, %68
  %75 = select i1 %74, double %68, double %73
  %76 = getelementptr inbounds i8, ptr %72, i64 8
  %77 = load double, ptr %76, align 8
  %78 = fcmp ogt double %77, %19
  %79 = select i1 %78, double %19, double %77
  %80 = fcmp ogt double %79, %75
  %81 = fsub double %79, %75
  %.0.i.i14 = select i1 %80, double %81, double 0.000000e+00
  %82 = fcmp oeq double %.0.i.i14, 0.000000e+00
  br i1 %82, label %_ZN8ZStatMMU13calculate_mmuEd.exit17, label %83

83:                                               ; preds = %.lr.ph.i11
  %84 = fadd double %.016.i12, %.0.i.i14
  %85 = add nuw nsw i64 %.01315.i13, 1
  %exitcond.not.i15 = icmp eq i64 %85, %13
  br i1 %exitcond.not.i15, label %_ZN8ZStatMMU13calculate_mmuEd.exit17, label %.lr.ph.i11, !llvm.loop !14

_ZN8ZStatMMU13calculate_mmuEd.exit17:             ; preds = %.lr.ph.i11, %83, %_ZN8ZStatMMU13calculate_mmuEd.exit9
  %.0.lcssa.i16 = phi double [ 0.000000e+00, %_ZN8ZStatMMU13calculate_mmuEd.exit9 ], [ %84, %83 ], [ %.016.i12, %.lr.ph.i11 ]
  %86 = fsub double 1.000000e+01, %.0.lcssa.i16
  %87 = fdiv double %86, 1.000000e+01
  %88 = fmul double %87, 1.000000e+02
  %89 = fcmp olt double %67, %88
  %90 = select i1 %89, double %67, double %88
  store double %90, ptr @_ZN8ZStatMMU9_mmu_10msE, align 8
  %91 = load double, ptr @_ZN8ZStatMMU9_mmu_20msE, align 8
  %92 = fadd double %19, -2.000000e+01
  br i1 %.not.i, label %_ZN8ZStatMMU13calculate_mmuEd.exit25, label %.lr.ph.i19

.lr.ph.i19:                                       ; preds = %_ZN8ZStatMMU13calculate_mmuEd.exit17, %107
  %.016.i20 = phi double [ %108, %107 ], [ 0.000000e+00, %_ZN8ZStatMMU13calculate_mmuEd.exit17 ]
  %.01315.i21 = phi i64 [ %109, %107 ], [ 0, %_ZN8ZStatMMU13calculate_mmuEd.exit17 ]
  %93 = xor i64 %.01315.i21, -1
  %94 = add i64 %15, %93
  %95 = urem i64 %94, 200
  %96 = getelementptr inbounds [200 x %class.ZStatMMUPause], ptr @_ZN8ZStatMMU7_pausesE, i64 0, i64 %95
  %97 = load double, ptr %96, align 16
  %98 = fcmp olt double %97, %92
  %99 = select i1 %98, double %92, double %97
  %100 = getelementptr inbounds i8, ptr %96, i64 8
  %101 = load double, ptr %100, align 8
  %102 = fcmp ogt double %101, %19
  %103 = select i1 %102, double %19, double %101
  %104 = fcmp ogt double %103, %99
  %105 = fsub double %103, %99
  %.0.i.i22 = select i1 %104, double %105, double 0.000000e+00
  %106 = fcmp oeq double %.0.i.i22, 0.000000e+00
  br i1 %106, label %_ZN8ZStatMMU13calculate_mmuEd.exit25, label %107

107:                                              ; preds = %.lr.ph.i19
  %108 = fadd double %.016.i20, %.0.i.i22
  %109 = add nuw nsw i64 %.01315.i21, 1
  %exitcond.not.i23 = icmp eq i64 %109, %13
  br i1 %exitcond.not.i23, label %_ZN8ZStatMMU13calculate_mmuEd.exit25, label %.lr.ph.i19, !llvm.loop !14

_ZN8ZStatMMU13calculate_mmuEd.exit25:             ; preds = %.lr.ph.i19, %107, %_ZN8ZStatMMU13calculate_mmuEd.exit17
  %.0.lcssa.i24 = phi double [ 0.000000e+00, %_ZN8ZStatMMU13calculate_mmuEd.exit17 ], [ %108, %107 ], [ %.016.i20, %.lr.ph.i19 ]
  %110 = fsub double 2.000000e+01, %.0.lcssa.i24
  %111 = fdiv double %110, 2.000000e+01
  %112 = fmul double %111, 1.000000e+02
  %113 = fcmp olt double %91, %112
  %114 = select i1 %113, double %91, double %112
  store double %114, ptr @_ZN8ZStatMMU9_mmu_20msE, align 8
  %115 = load double, ptr @_ZN8ZStatMMU9_mmu_50msE, align 8
  %116 = fadd double %19, -5.000000e+01
  br i1 %.not.i, label %_ZN8ZStatMMU13calculate_mmuEd.exit33, label %.lr.ph.i27

.lr.ph.i27:                                       ; preds = %_ZN8ZStatMMU13calculate_mmuEd.exit25, %131
  %.016.i28 = phi double [ %132, %131 ], [ 0.000000e+00, %_ZN8ZStatMMU13calculate_mmuEd.exit25 ]
  %.01315.i29 = phi i64 [ %133, %131 ], [ 0, %_ZN8ZStatMMU13calculate_mmuEd.exit25 ]
  %117 = xor i64 %.01315.i29, -1
  %118 = add i64 %15, %117
  %119 = urem i64 %118, 200
  %120 = getelementptr inbounds [200 x %class.ZStatMMUPause], ptr @_ZN8ZStatMMU7_pausesE, i64 0, i64 %119
  %121 = load double, ptr %120, align 16
  %122 = fcmp olt double %121, %116
  %123 = select i1 %122, double %116, double %121
  %124 = getelementptr inbounds i8, ptr %120, i64 8
  %125 = load double, ptr %124, align 8
  %126 = fcmp ogt double %125, %19
  %127 = select i1 %126, double %19, double %125
  %128 = fcmp ogt double %127, %123
  %129 = fsub double %127, %123
  %.0.i.i30 = select i1 %128, double %129, double 0.000000e+00
  %130 = fcmp oeq double %.0.i.i30, 0.000000e+00
  br i1 %130, label %_ZN8ZStatMMU13calculate_mmuEd.exit33, label %131

131:                                              ; preds = %.lr.ph.i27
  %132 = fadd double %.016.i28, %.0.i.i30
  %133 = add nuw nsw i64 %.01315.i29, 1
  %exitcond.not.i31 = icmp eq i64 %133, %13
  br i1 %exitcond.not.i31, label %_ZN8ZStatMMU13calculate_mmuEd.exit33, label %.lr.ph.i27, !llvm.loop !14

_ZN8ZStatMMU13calculate_mmuEd.exit33:             ; preds = %.lr.ph.i27, %131, %_ZN8ZStatMMU13calculate_mmuEd.exit25
  %.0.lcssa.i32 = phi double [ 0.000000e+00, %_ZN8ZStatMMU13calculate_mmuEd.exit25 ], [ %132, %131 ], [ %.016.i28, %.lr.ph.i27 ]
  %134 = fsub double 5.000000e+01, %.0.lcssa.i32
  %135 = fdiv double %134, 5.000000e+01
  %136 = fmul double %135, 1.000000e+02
  %137 = fcmp olt double %115, %136
  %138 = select i1 %137, double %115, double %136
  store double %138, ptr @_ZN8ZStatMMU9_mmu_50msE, align 8
  %139 = load double, ptr @_ZN8ZStatMMU10_mmu_100msE, align 8
  %140 = fadd double %19, -1.000000e+02
  br i1 %.not.i, label %_ZN8ZStatMMU13calculate_mmuEd.exit41, label %.lr.ph.i35

.lr.ph.i35:                                       ; preds = %_ZN8ZStatMMU13calculate_mmuEd.exit33, %155
  %.016.i36 = phi double [ %156, %155 ], [ 0.000000e+00, %_ZN8ZStatMMU13calculate_mmuEd.exit33 ]
  %.01315.i37 = phi i64 [ %157, %155 ], [ 0, %_ZN8ZStatMMU13calculate_mmuEd.exit33 ]
  %141 = xor i64 %.01315.i37, -1
  %142 = add i64 %15, %141
  %143 = urem i64 %142, 200
  %144 = getelementptr inbounds [200 x %class.ZStatMMUPause], ptr @_ZN8ZStatMMU7_pausesE, i64 0, i64 %143
  %145 = load double, ptr %144, align 16
  %146 = fcmp olt double %145, %140
  %147 = select i1 %146, double %140, double %145
  %148 = getelementptr inbounds i8, ptr %144, i64 8
  %149 = load double, ptr %148, align 8
  %150 = fcmp ogt double %149, %19
  %151 = select i1 %150, double %19, double %149
  %152 = fcmp ogt double %151, %147
  %153 = fsub double %151, %147
  %.0.i.i38 = select i1 %152, double %153, double 0.000000e+00
  %154 = fcmp oeq double %.0.i.i38, 0.000000e+00
  br i1 %154, label %_ZN8ZStatMMU13calculate_mmuEd.exit41, label %155

155:                                              ; preds = %.lr.ph.i35
  %156 = fadd double %.016.i36, %.0.i.i38
  %157 = add nuw nsw i64 %.01315.i37, 1
  %exitcond.not.i39 = icmp eq i64 %157, %13
  br i1 %exitcond.not.i39, label %_ZN8ZStatMMU13calculate_mmuEd.exit41, label %.lr.ph.i35, !llvm.loop !14

_ZN8ZStatMMU13calculate_mmuEd.exit41:             ; preds = %.lr.ph.i35, %155, %_ZN8ZStatMMU13calculate_mmuEd.exit33
  %.0.lcssa.i40 = phi double [ 0.000000e+00, %_ZN8ZStatMMU13calculate_mmuEd.exit33 ], [ %156, %155 ], [ %.016.i36, %.lr.ph.i35 ]
  %158 = fsub double 1.000000e+02, %.0.lcssa.i40
  %159 = fdiv double %158, 1.000000e+02
  %160 = fmul double %159, 1.000000e+02
  %161 = fcmp olt double %139, %160
  %162 = select i1 %161, double %139, double %160
  store double %162, ptr @_ZN8ZStatMMU10_mmu_100msE, align 8
  ret void
}